target datalayout = "e-m:e-p270:32:32-p271:32:32-p272:64:64-i64:64-i128:128-f80:128-n8:16:32:64-S128"
target triple = "x86_64-pc-linux-gnu"

%struct.FmgrInfo = type { ptr, i32, i16, i8, i8, i8, ptr, ptr, ptr }
%struct.ColumnIOData = type { i32, i32, i32, %struct.ScalarIOData, %union.anon.8 }
%struct.ScalarIOData = type { i32, %struct.FmgrInfo }
%union.anon.8 = type { %struct.CompositeIOData }
%struct.CompositeIOData = type { ptr, ptr, i32, i32, ptr }
%struct.FormData_pg_type = type { i32, %struct.nameData, i32, i32, i16, i8, i8, i8, i8, i8, i8, i32, i32, i32, i32, i32, i32, i32, i32, i32, i32, i32, i8, i8, i8, i32, i32, i32, i32 }
%struct.nameData = type { [64 x i8] }
%struct.DomainIOData = type { ptr, i32, i32, ptr }
%struct.ArrayIOData = type { ptr, i32, i32 }
%struct.HeapTupleData = type { i32, %struct.ItemPointerData, i32, ptr }
%struct.ItemPointerData = type { %struct.BlockIdData, i16 }
%struct.BlockIdData = type { i16, i16 }
%struct.HeapTupleHeaderData = type { %union.anon.9, %struct.ItemPointerData, i16, i16, i8, [0 x i8] }
%union.anon.9 = type { %struct.HeapTupleFields }
%struct.HeapTupleFields = type { i32, i32, %union.anon.10 }
%union.anon.10 = type { i32 }

@.str.2 = private unnamed_addr constant [12 x i8] c"jsonfuncs.c\00", align 1
@.str.68 = private unnamed_addr constant [32 x i8] c"cache lookup failed for type %u\00", align 1
@__func__.prepare_column_cache = private unnamed_addr constant [21 x i8] c"prepare_column_cache\00", align 1

; Function Attrs: inlinehint nounwind uwtable
define internal ptr @GETSTRUCT(ptr noundef %0) #3 {
  %2 = alloca ptr, align 8
  store ptr %0, ptr %2, align 8
  %3 = load ptr, ptr %2, align 8
  %4 = getelementptr inbounds nuw %struct.HeapTupleData, ptr %3, i32 0, i32 3
  %5 = load ptr, ptr %4, align 8
  %6 = load ptr, ptr %2, align 8
  %7 = getelementptr inbounds nuw %struct.HeapTupleData, ptr %6, i32 0, i32 3
  %8 = load ptr, ptr %7, align 8
  %9 = getelementptr inbounds nuw %struct.HeapTupleHeaderData, ptr %8, i32 0, i32 4
  %10 = load i8, ptr %9, align 2
  %11 = zext i8 %10 to i32
  %12 = sext i32 %11 to i64
  %13 = getelementptr inbounds i8, ptr %5, i64 %12
  ret ptr %13
}

; Function Attrs: inlinehint nounwind uwtable
define internal i64 @ObjectIdGetDatum(i32 noundef %0) #3 {
  %2 = alloca i32, align 4
  store i32 %0, ptr %2, align 4
  %3 = load i32, ptr %2, align 4
  %4 = zext i32 %3 to i64
  ret i64 %4
}

; Function Attrs: nounwind uwtable
define internal void @prepare_column_cache(ptr noundef %0, i32 noundef %1, i32 noundef %2, ptr noundef %3, i1 noundef zeroext %4) #0 {
  %6 = alloca ptr, align 8
  %7 = alloca i32, align 4
  %8 = alloca i32, align 4
  %9 = alloca ptr, align 8
  %10 = alloca i8, align 1
  %11 = alloca ptr, align 8
  %12 = alloca ptr, align 8
  %13 = alloca i32, align 4
  %14 = alloca i32, align 4
  %15 = alloca i32, align 4
  store ptr %0, ptr %6, align 8
  store i32 %1, ptr %7, align 4
  store i32 %2, ptr %8, align 4
  store ptr %3, ptr %9, align 8
  %16 = zext i1 %4 to i8
  store i8 %16, ptr %10, align 1
  call void @llvm.lifetime.start.p0(i64 8, ptr %11) #10
  call void @llvm.lifetime.start.p0(i64 8, ptr %12) #10
  %17 = load i32, ptr %7, align 4
  %18 = load ptr, ptr %6, align 8
  %19 = getelementptr inbounds nuw %struct.ColumnIOData, ptr %18, i32 0, i32 0
  store i32 %17, ptr %19, align 8
  %20 = load i32, ptr %8, align 4
  %21 = load ptr, ptr %6, align 8
  %22 = getelementptr inbounds nuw %struct.ColumnIOData, ptr %21, i32 0, i32 1
  store i32 %20, ptr %22, align 4
  %23 = load i32, ptr %7, align 4
  %24 = call i64 @ObjectIdGetDatum(i32 noundef %23)
  %25 = call ptr @SearchSysCache1(i32 noundef 82, i64 noundef %24)
  store ptr %25, ptr %11, align 8
  %26 = load ptr, ptr %11, align 8
  %27 = icmp ne ptr %26, null
  br i1 %27, label %40, label %28

28:                                               ; preds = %5
  br label %29

29:                                               ; preds = %28
  br i1 true, label %30, label %32

30:                                               ; preds = %29
  %31 = call zeroext i1 @errstart_cold(i32 noundef 21, ptr noundef null) #11
  br i1 %31, label %34, label %37

32:                                               ; preds = %29
  %33 = call zeroext i1 @errstart(i32 noundef 21, ptr noundef null)
  br i1 %33, label %34, label %37

34:                                               ; preds = %32, %30
  %35 = load i32, ptr %7, align 4
  %36 = call i32 (ptr, ...) @errmsg_internal(ptr noundef @.str.68, i32 noundef %35)
  call void @errfinish(ptr noundef @.str.2, i32 noundef 3264, ptr noundef @__func__.prepare_column_cache)
  br label %37

37:                                               ; preds = %34, %32, %30
  unreachable

38:                                               ; No predecessors!
  br label %39

39:                                               ; preds = %38
  br label %40

40:                                               ; preds = %39, %5
  %41 = load ptr, ptr %11, align 8
  %42 = call ptr @GETSTRUCT(ptr noundef %41)
  store ptr %42, ptr %12, align 8
  %43 = load ptr, ptr %12, align 8
  %44 = getelementptr inbounds nuw %struct.FormData_pg_type, ptr %43, i32 0, i32 6
  %45 = load i8, ptr %44, align 1
  %46 = sext i8 %45 to i32
  %47 = icmp eq i32 %46, 100
  br i1 %47, label %48, label %96

48:                                               ; preds = %40
  call void @llvm.lifetime.start.p0(i64 4, ptr %13) #10
  call void @llvm.lifetime.start.p0(i64 4, ptr %14) #10
  %49 = load i32, ptr %8, align 4
  store i32 %49, ptr %14, align 4
  %50 = load i32, ptr %7, align 4
  %51 = call i32 @getBaseTypeAndTypmod(i32 noundef %50, ptr noundef %14)
  store i32 %51, ptr %13, align 4
  %52 = load i32, ptr %13, align 4
  %53 = call signext i8 @get_typtype(i32 noundef %52)
  %54 = sext i8 %53 to i32
  %55 = icmp eq i32 %54, 99
  br i1 %55, label %56, label %76

56:                                               ; preds = %48
  %57 = load ptr, ptr %6, align 8
  %58 = getelementptr inbounds nuw %struct.ColumnIOData, ptr %57, i32 0, i32 2
  store i32 67, ptr %58, align 8
  %59 = load ptr, ptr %6, align 8
  %60 = getelementptr inbounds nuw %struct.ColumnIOData, ptr %59, i32 0, i32 4
  %61 = getelementptr inbounds nuw %struct.CompositeIOData, ptr %60, i32 0, i32 0
  store ptr null, ptr %61, align 8
  %62 = load ptr, ptr %6, align 8
  %63 = getelementptr inbounds nuw %struct.ColumnIOData, ptr %62, i32 0, i32 4
  %64 = getelementptr inbounds nuw %struct.CompositeIOData, ptr %63, i32 0, i32 1
  store ptr null, ptr %64, align 8
  %65 = load i32, ptr %13, align 4
  %66 = load ptr, ptr %6, align 8
  %67 = getelementptr inbounds nuw %struct.ColumnIOData, ptr %66, i32 0, i32 4
  %68 = getelementptr inbounds nuw %struct.CompositeIOData, ptr %67, i32 0, i32 2
  store i32 %65, ptr %68, align 8
  %69 = load i32, ptr %14, align 4
  %70 = load ptr, ptr %6, align 8
  %71 = getelementptr inbounds nuw %struct.ColumnIOData, ptr %70, i32 0, i32 4
  %72 = getelementptr inbounds nuw %struct.CompositeIOData, ptr %71, i32 0, i32 3
  store i32 %69, ptr %72, align 4
  %73 = load ptr, ptr %6, align 8
  %74 = getelementptr inbounds nuw %struct.ColumnIOData, ptr %73, i32 0, i32 4
  %75 = getelementptr inbounds nuw %struct.CompositeIOData, ptr %74, i32 0, i32 4
  store ptr null, ptr %75, align 8
  br label %95

76:                                               ; preds = %48
  %77 = load ptr, ptr %6, align 8
  %78 = getelementptr inbounds nuw %struct.ColumnIOData, ptr %77, i32 0, i32 2
  store i32 100, ptr %78, align 8
  %79 = load i32, ptr %13, align 4
  %80 = load ptr, ptr %6, align 8
  %81 = getelementptr inbounds nuw %struct.ColumnIOData, ptr %80, i32 0, i32 4
  %82 = getelementptr inbounds nuw %struct.DomainIOData, ptr %81, i32 0, i32 1
  store i32 %79, ptr %82, align 8
  %83 = load i32, ptr %14, align 4
  %84 = load ptr, ptr %6, align 8
  %85 = getelementptr inbounds nuw %struct.ColumnIOData, ptr %84, i32 0, i32 4
  %86 = getelementptr inbounds nuw %struct.DomainIOData, ptr %85, i32 0, i32 2
  store i32 %83, ptr %86, align 4
  %87 = load ptr, ptr %9, align 8
  %88 = call ptr @MemoryContextAllocZero(ptr noundef %87, i64 noundef 104)
  %89 = load ptr, ptr %6, align 8
  %90 = getelementptr inbounds nuw %struct.ColumnIOData, ptr %89, i32 0, i32 4
  %91 = getelementptr inbounds nuw %struct.DomainIOData, ptr %90, i32 0, i32 0
  store ptr %88, ptr %91, align 8
  %92 = load ptr, ptr %6, align 8
  %93 = getelementptr inbounds nuw %struct.ColumnIOData, ptr %92, i32 0, i32 4
  %94 = getelementptr inbounds nuw %struct.DomainIOData, ptr %93, i32 0, i32 3
  store ptr null, ptr %94, align 8
  br label %95

95:                                               ; preds = %76, %56
  call void @llvm.lifetime.end.p0(i64 4, ptr %14) #10
  call void @llvm.lifetime.end.p0(i64 4, ptr %13) #10
  br label %158

96:                                               ; preds = %40
  %97 = load ptr, ptr %12, align 8
  %98 = getelementptr inbounds nuw %struct.FormData_pg_type, ptr %97, i32 0, i32 6
  %99 = load i8, ptr %98, align 1
  %100 = sext i8 %99 to i32
  %101 = icmp eq i32 %100, 99
  br i1 %101, label %105, label %102

102:                                              ; preds = %96
  %103 = load i32, ptr %7, align 4
  %104 = icmp eq i32 %103, 2249
  br i1 %104, label %105, label %125

105:                                              ; preds = %102, %96
  %106 = load ptr, ptr %6, align 8
  %107 = getelementptr inbounds nuw %struct.ColumnIOData, ptr %106, i32 0, i32 2
  store i32 99, ptr %107, align 8
  %108 = load ptr, ptr %6, align 8
  %109 = getelementptr inbounds nuw %struct.ColumnIOData, ptr %108, i32 0, i32 4
  %110 = getelementptr inbounds nuw %struct.CompositeIOData, ptr %109, i32 0, i32 0
  store ptr null, ptr %110, align 8
  %111 = load ptr, ptr %6, align 8
  %112 = getelementptr inbounds nuw %struct.ColumnIOData, ptr %111, i32 0, i32 4
  %113 = getelementptr inbounds nuw %struct.CompositeIOData, ptr %112, i32 0, i32 1
  store ptr null, ptr %113, align 8
  %114 = load i32, ptr %7, align 4
  %115 = load ptr, ptr %6, align 8
  %116 = getelementptr inbounds nuw %struct.ColumnIOData, ptr %115, i32 0, i32 4
  %117 = getelementptr inbounds nuw %struct.CompositeIOData, ptr %116, i32 0, i32 2
  store i32 %114, ptr %117, align 8
  %118 = load i32, ptr %8, align 4
  %119 = load ptr, ptr %6, align 8
  %120 = getelementptr inbounds nuw %struct.ColumnIOData, ptr %119, i32 0, i32 4
  %121 = getelementptr inbounds nuw %struct.CompositeIOData, ptr %120, i32 0, i32 3
  store i32 %118, ptr %121, align 4
  %122 = load ptr, ptr %6, align 8
  %123 = getelementptr inbounds nuw %struct.ColumnIOData, ptr %122, i32 0, i32 4
  %124 = getelementptr inbounds nuw %struct.CompositeIOData, ptr %123, i32 0, i32 4
  store ptr null, ptr %124, align 8
  br label %157

125:                                              ; preds = %102
  %126 = load ptr, ptr %12, align 8
  %127 = getelementptr inbounds nuw %struct.FormData_pg_type, ptr %126, i32 0, i32 13
  %128 = load i32, ptr %127, align 4
  %129 = icmp ne i32 %128, 0
  br i1 %129, label %130, label %153

130:                                              ; preds = %125
  %131 = load ptr, ptr %12, align 8
  %132 = getelementptr inbounds nuw %struct.FormData_pg_type, ptr %131, i32 0, i32 12
  %133 = load i32, ptr %132, align 4
  %134 = icmp eq i32 %133, 6179
  br i1 %134, label %135, label %153

135:                                              ; preds = %130
  %136 = load ptr, ptr %6, align 8
  %137 = getelementptr inbounds nuw %struct.ColumnIOData, ptr %136, i32 0, i32 2
  store i32 97, ptr %137, align 8
  %138 = load ptr, ptr %9, align 8
  %139 = call ptr @MemoryContextAllocZero(ptr noundef %138, i64 noundef 104)
  %140 = load ptr, ptr %6, align 8
  %141 = getelementptr inbounds nuw %struct.ColumnIOData, ptr %140, i32 0, i32 4
  %142 = getelementptr inbounds nuw %struct.ArrayIOData, ptr %141, i32 0, i32 0
  store ptr %139, ptr %142, align 8
  %143 = load ptr, ptr %12, align 8
  %144 = getelementptr inbounds nuw %struct.FormData_pg_type, ptr %143, i32 0, i32 13
  %145 = load i32, ptr %144, align 4
  %146 = load ptr, ptr %6, align 8
  %147 = getelementptr inbounds nuw %struct.ColumnIOData, ptr %146, i32 0, i32 4
  %148 = getelementptr inbounds nuw %struct.ArrayIOData, ptr %147, i32 0, i32 1
  store i32 %145, ptr %148, align 8
  %149 = load i32, ptr %8, align 4
  %150 = load ptr, ptr %6, align 8
  %151 = getelementptr inbounds nuw %struct.ColumnIOData, ptr %150, i32 0, i32 4
  %152 = getelementptr inbounds nuw %struct.ArrayIOData, ptr %151, i32 0, i32 2
  store i32 %149, ptr %152, align 4
  br label %156

153:                                              ; preds = %130, %125
  %154 = load ptr, ptr %6, align 8
  %155 = getelementptr inbounds nuw %struct.ColumnIOData, ptr %154, i32 0, i32 2
  store i32 115, ptr %155, align 8
  store i8 1, ptr %10, align 1
  br label %156

156:                                              ; preds = %153, %135
  br label %157

157:                                              ; preds = %156, %105
  br label %158

158:                                              ; preds = %157, %95
  %159 = load i8, ptr %10, align 1, !range !4, !noundef !5
  %160 = trunc i8 %159 to i1
  br i1 %160, label %161, label %171

161:                                              ; preds = %158
  call void @llvm.lifetime.start.p0(i64 4, ptr %15) #10
  %162 = load i32, ptr %7, align 4
  %163 = load ptr, ptr %6, align 8
  %164 = getelementptr inbounds nuw %struct.ColumnIOData, ptr %163, i32 0, i32 3
  %165 = getelementptr inbounds nuw %struct.ScalarIOData, ptr %164, i32 0, i32 0
  call void @getTypeInputInfo(i32 noundef %162, ptr noundef %15, ptr noundef %165)
  %166 = load i32, ptr %15, align 4
  %167 = load ptr, ptr %6, align 8
  %168 = getelementptr inbounds nuw %struct.ColumnIOData, ptr %167, i32 0, i32 3
  %169 = getelementptr inbounds nuw %struct.ScalarIOData, ptr %168, i32 0, i32 1
  %170 = load ptr, ptr %9, align 8
  call void @fmgr_info_cxt(i32 noundef %166, ptr noundef %169, ptr noundef %170)
  call void @llvm.lifetime.end.p0(i64 4, ptr %15) #10
  br label %171

171:                                              ; preds = %161, %158
  %172 = load ptr, ptr %11, align 8
  call void @ReleaseSysCache(ptr noundef %172)
  call void @llvm.lifetime.end.p0(i64 8, ptr %12) #10
  call void @llvm.lifetime.end.p0(i64 8, ptr %11) #10
  ret void
}