; Function Attrs: nounwind uwtable
define internal fastcc void @prepare_column_cache(ptr noundef initializes((0, 8)) %0, i32 noundef %1, i32 noundef %2, ptr noundef %3, i1 noundef zeroext %4) unnamed_addr #0 {
  %6 = alloca i32, align 4
  %7 = alloca i32, align 4
  store i32 %1, ptr %0, align 8
  %8 = getelementptr inbounds nuw i8, ptr %0, i64 4
  store i32 %2, ptr %8, align 4
  %9 = zext i32 %1 to i64
  %10 = tail call ptr @SearchSysCache1(i32 noundef 82, i64 noundef %9) #15
  %.not = icmp eq ptr %10, null
  br i1 %.not, label %11, label %14

11:                                               ; preds = %5
  %12 = tail call zeroext i1 @errstart_cold(i32 noundef 21, ptr noundef null) #16
  tail call void @llvm.assume(i1 %12)
  %13 = tail call i32 (ptr, ...) @errmsg_internal(ptr noundef nonnull @.str.68, i32 noundef %1) #15
  tail call void @errfinish(ptr noundef nonnull @.str.2, i32 noundef 3264, ptr noundef nonnull @__func__.prepare_column_cache) #15
  unreachable

14:                                               ; preds = %5
  %15 = getelementptr i8, ptr %10, i64 16
  %.val = load ptr, ptr %15, align 8
  %16 = getelementptr inbounds nuw i8, ptr %.val, i64 22
  %17 = load i8, ptr %16, align 2
  %18 = zext i8 %17 to i64
  %19 = getelementptr inbounds nuw i8, ptr %.val, i64 %18
  %20 = getelementptr inbounds nuw i8, ptr %19, i64 79
  %21 = load i8, ptr %20, align 1
  %22 = icmp eq i8 %21, 100
  br i1 %22, label %23, label %40

23:                                               ; preds = %14
  call void @llvm.lifetime.start.p0(i64 4, ptr nonnull %6) #15
  store i32 %2, ptr %6, align 4
  %24 = call i32 @getBaseTypeAndTypmod(i32 noundef %1, ptr noundef nonnull %6) #15
  %25 = call signext i8 @get_typtype(i32 noundef %24) #15
  %26 = icmp eq i8 %25, 99
  %27 = getelementptr inbounds nuw i8, ptr %0, i64 8
  %28 = getelementptr inbounds nuw i8, ptr %0, i64 80
  br i1 %26, label %29, label %33

29:                                               ; preds = %23
  store i32 67, ptr %27, align 8
  store ptr null, ptr %28, align 8
  %30 = getelementptr inbounds nuw i8, ptr %0, i64 88
  store i32 %24, ptr %30, align 8
  %31 = load i32, ptr %6, align 4
  %32 = getelementptr inbounds nuw i8, ptr %0, i64 92
  store i32 %31, ptr %32, align 4
  br label %37

33:                                               ; preds = %23
  store i32 100, ptr %27, align 8
  store i32 %24, ptr %28, align 8
  %34 = load i32, ptr %6, align 4
  %35 = getelementptr inbounds nuw i8, ptr %0, i64 84
  store i32 %34, ptr %35, align 4
  %36 = call ptr @MemoryContextAllocZero(ptr noundef %3, i64 noundef 104) #15
  br label %37

37:                                               ; preds = %33, %29
  %.sink56 = phi i64 [ 88, %33 ], [ 96, %29 ]
  %.sink = phi ptr [ %36, %33 ], [ null, %29 ]
  %38 = getelementptr inbounds nuw i8, ptr %0, i64 %.sink56
  store ptr null, ptr %38, align 8
  %39 = getelementptr inbounds nuw i8, ptr %0, i64 72
  store ptr %.sink, ptr %39, align 8
  call void @llvm.lifetime.end.p0(i64 4, ptr nonnull %6) #15
  br label %64

40:                                               ; preds = %14
  %41 = icmp eq i8 %21, 99
  %42 = icmp eq i32 %1, 2249
  %or.cond = or i1 %42, %41
  br i1 %or.cond, label %43, label %49

43:                                               ; preds = %40
  %44 = getelementptr inbounds nuw i8, ptr %0, i64 8
  store i32 99, ptr %44, align 8
  %45 = getelementptr inbounds nuw i8, ptr %0, i64 72
  %46 = getelementptr inbounds nuw i8, ptr %0, i64 88
  tail call void @llvm.memset.p0.i64(ptr noundef nonnull align 8 dereferenceable(16) %45, i8 0, i64 16, i1 false)
  store i32 %1, ptr %46, align 8
  %47 = getelementptr inbounds nuw i8, ptr %0, i64 92
  store i32 %2, ptr %47, align 4
  %48 = getelementptr inbounds nuw i8, ptr %0, i64 96
  store ptr null, ptr %48, align 8
  br label %64

49:                                               ; preds = %40
  %50 = getelementptr inbounds nuw i8, ptr %19, i64 92
  %51 = load i32, ptr %50, align 4
  %.not54 = icmp eq i32 %51, 0
  br i1 %.not54, label %.critedge, label %52

52:                                               ; preds = %49
  %53 = getelementptr inbounds nuw i8, ptr %19, i64 88
  %54 = load i32, ptr %53, align 4
  %55 = icmp eq i32 %54, 6179
  br i1 %55, label %56, label %.critedge

56:                                               ; preds = %52
  %57 = getelementptr inbounds nuw i8, ptr %0, i64 8
  store i32 97, ptr %57, align 8
  %58 = tail call ptr @MemoryContextAllocZero(ptr noundef %3, i64 noundef 104) #15
  %59 = getelementptr inbounds nuw i8, ptr %0, i64 72
  store ptr %58, ptr %59, align 8
  %60 = load i32, ptr %50, align 4
  %61 = getelementptr inbounds nuw i8, ptr %0, i64 80
  store i32 %60, ptr %61, align 8
  %62 = getelementptr inbounds nuw i8, ptr %0, i64 84
  store i32 %2, ptr %62, align 4
  br label %64

.critedge:                                        ; preds = %52, %49
  %63 = getelementptr inbounds nuw i8, ptr %0, i64 8
  store i32 115, ptr %63, align 8
  br label %65

64:                                               ; preds = %43, %56, %37
  br i1 %4, label %65, label %69

65:                                               ; preds = %.critedge, %64
  call void @llvm.lifetime.start.p0(i64 4, ptr nonnull %7) #15
  %66 = getelementptr inbounds nuw i8, ptr %0, i64 16
  call void @getTypeInputInfo(i32 noundef %1, ptr noundef nonnull %7, ptr noundef nonnull %66) #15
  %67 = load i32, ptr %7, align 4
  %68 = getelementptr inbounds nuw i8, ptr %0, i64 24
  call void @fmgr_info_cxt(i32 noundef %67, ptr noundef nonnull %68, ptr noundef %3) #15
  call void @llvm.lifetime.end.p0(i64 4, ptr nonnull %7) #15
  br label %69

69:                                               ; preds = %65, %64
  call void @ReleaseSysCache(ptr noundef nonnull %10) #15
  ret void
}